; Function Attrs: nounwind uwtable
define float @dt_bauhaus_slider_get_val(ptr noundef %0) local_unnamed_addr #0 {
  %2 = load atomic i64, ptr @dt_bh_get_type.static_g_define_type_id seq_cst, align 8
  %.not.i.i = icmp eq i64 %2, 0
  br i1 %.not.i.i, label %3, label %DT_BAUHAUS_WIDGET.exit

3:                                                ; preds = %1
  %4 = tail call i32 @g_once_init_enter(ptr noundef nonnull @dt_bh_get_type.static_g_define_type_id) #19
  %.not4.i.i = icmp eq i32 %4, 0
  br i1 %.not4.i.i, label %DT_BAUHAUS_WIDGET.exit, label %5

5:                                                ; preds = %3
  %6 = tail call fastcc i64 @dt_bh_get_type_once()
  tail call void @g_once_init_leave(ptr noundef nonnull @dt_bh_get_type.static_g_define_type_id, i64 noundef %6) #19
  br label %DT_BAUHAUS_WIDGET.exit

DT_BAUHAUS_WIDGET.exit:                           ; preds = %1, %3, %5
  %7 = load i64, ptr @dt_bh_get_type.static_g_define_type_id, align 8, !tbaa !6
  %8 = tail call ptr @g_type_check_instance_cast(ptr noundef %0, i64 noundef %7) #19
  %9 = load atomic i64, ptr @dt_bh_get_type.static_g_define_type_id seq_cst, align 8
  %.not.i.i.i = icmp eq i64 %9, 0
  br i1 %.not.i.i.i, label %10, label %DT_BAUHAUS_WIDGET.exit.i

10:                                               ; preds = %DT_BAUHAUS_WIDGET.exit
  %11 = tail call i32 @g_once_init_enter(ptr noundef nonnull @dt_bh_get_type.static_g_define_type_id) #19
  %.not4.i.i.i = icmp eq i32 %11, 0
  br i1 %.not4.i.i.i, label %DT_BAUHAUS_WIDGET.exit.i, label %12

12:                                               ; preds = %10
  %13 = tail call fastcc i64 @dt_bh_get_type_once()
  tail call void @g_once_init_leave(ptr noundef nonnull @dt_bh_get_type.static_g_define_type_id, i64 noundef %13) #19
  br label %DT_BAUHAUS_WIDGET.exit.i

DT_BAUHAUS_WIDGET.exit.i:                         ; preds = %12, %10, %DT_BAUHAUS_WIDGET.exit
  %14 = load i64, ptr @dt_bh_get_type.static_g_define_type_id, align 8, !tbaa !6
  %15 = tail call ptr @g_type_check_instance_cast(ptr noundef %0, i64 noundef %14) #19
  %16 = getelementptr inbounds nuw i8, ptr %15, i64 40
  %17 = load i32, ptr %16, align 8, !tbaa !105
  %.not.i = icmp eq i32 %17, 1
  br i1 %.not.i, label %18, label %dt_bauhaus_slider_get.exit

18:                                               ; preds = %DT_BAUHAUS_WIDGET.exit.i
  %19 = getelementptr inbounds nuw i8, ptr %15, i64 428
  %20 = load float, ptr %19, align 4, !tbaa !120
  %21 = getelementptr inbounds nuw i8, ptr %15, i64 424
  %22 = load float, ptr %21, align 8, !tbaa !121
  %23 = fcmp reassoc nsz arcp contract afn oeq float %20, %22
  br i1 %23, label %dt_bauhaus_slider_get.exit, label %24

24:                                               ; preds = %18
  %25 = getelementptr inbounds nuw i8, ptr %15, i64 408
  %26 = getelementptr inbounds nuw i8, ptr %15, i64 512
  %27 = load ptr, ptr %26, align 8, !tbaa !142
  %28 = load float, ptr %25, align 8, !tbaa !143
  %29 = tail call reassoc nsz arcp contract afn float %27(float noundef %28, i32 noundef 2) #19
  %30 = load float, ptr %21, align 8, !tbaa !121
  %31 = load float, ptr %19, align 4, !tbaa !120
  %32 = fsub reassoc nsz arcp contract afn float %31, %30
  %33 = fmul reassoc nsz arcp contract afn float %32, %29
  %34 = fadd reassoc nsz arcp contract afn float %33, %30
  br label %dt_bauhaus_slider_get.exit

dt_bauhaus_slider_get.exit:                       ; preds = %DT_BAUHAUS_WIDGET.exit.i, %18, %24
  %.0.i = phi nsz float [ -1.000000e+00, %DT_BAUHAUS_WIDGET.exit.i ], [ %34, %24 ], [ %20, %18 ]
  %35 = getelementptr inbounds nuw i8, ptr %8, i64 496
  %36 = load float, ptr %35, align 8, !tbaa !122
  %37 = fmul reassoc nsz arcp contract afn float %36, %.0.i
  %38 = getelementptr inbounds nuw i8, ptr %8, i64 500
  %39 = load float, ptr %38, align 4, !tbaa !218
  %40 = fadd reassoc nsz arcp contract afn float %37, %39
  ret float %40
}